target datalayout = "e-m:e-p270:32:32-p271:32:32-p272:64:64-i64:64-i128:128-f80:128-n8:16:32:64-S128"
target triple = "x86_64-pc-linux-gnu"

%struct.evthread_lock_callbacks = type { i32, i32, ptr, ptr, ptr, ptr }
%struct.ev_token_bucket = type { i64, i64, i32 }
%struct.ev_token_bucket_cfg = type { i64, i64, i64, i64, %struct.timeval, i32 }
%struct.timeval = type { i64, i64 }
%struct.bufferevent_private = type { %struct.bufferevent, ptr, i8, i16, i16, i16, i32, i32, %struct.event_callback, i32, i32, ptr, i64, i64, ptr, %union.anon.7, ptr }
%struct.bufferevent = type { ptr, ptr, %struct.event, %struct.event, ptr, ptr, %struct.event_watermark, %struct.event_watermark, ptr, ptr, ptr, ptr, %struct.timeval, %struct.timeval, i16 }
%struct.event = type { %struct.event_callback, %union.anon.0, i32, i16, i16, ptr, %union.anon.2, %struct.timeval }
%union.anon.0 = type { %struct.anon.1 }
%struct.anon.1 = type { ptr, ptr }
%union.anon.2 = type { %struct.anon.3 }
%struct.anon.3 = type { %struct.anon.4, %struct.timeval }
%struct.anon.4 = type { ptr, ptr }
%struct.event_watermark = type { i64, i64 }
%struct.event_callback = type { %struct.anon, i16, i8, i8, %union.anon, ptr }
%struct.anon = type { ptr, ptr }
%union.anon = type { ptr }
%union.anon.7 = type { %struct.sockaddr_in6 }
%struct.sockaddr_in6 = type { i16, i16, i32, %struct.in6_addr, i32 }
%struct.in6_addr = type { %union.anon.8 }
%union.anon.8 = type { [4 x i32] }
%struct.bufferevent_rate_limit = type { %struct.anon.9, ptr, %struct.ev_token_bucket, ptr, %struct.event }
%struct.anon.9 = type { ptr, ptr }
%struct.bufferevent_rate_limit_group = type { %struct.rlim_group_member_list, %struct.ev_token_bucket, %struct.ev_token_bucket_cfg, i8, i64, i64, i32, i64, i64, %struct.event, %struct.evutil_weakrand_state, ptr }
%struct.rlim_group_member_list = type { ptr }
%struct.evutil_weakrand_state = type { i32 }

@evthread_lock_fns_ = external global %struct.evthread_lock_callbacks, align 8

; Function Attrs: inlinehint nounwind uwtable
define internal i32 @EVLOCK_TRY_LOCK_(ptr noundef %0) #4 {
  %2 = alloca i32, align 4
  %3 = alloca ptr, align 8
  %4 = alloca i32, align 4
  store ptr %0, ptr %3, align 8
  %5 = load ptr, ptr %3, align 8
  %6 = icmp ne ptr %5, null
  br i1 %6, label %7, label %18

7:                                                ; preds = %1
  %8 = load ptr, ptr getelementptr inbounds nuw (%struct.evthread_lock_callbacks, ptr @evthread_lock_fns_, i32 0, i32 4), align 8
  %9 = icmp ne ptr %8, null
  br i1 %9, label %10, label %18

10:                                               ; preds = %7
  call void @llvm.lifetime.start.p0(i64 4, ptr %4) #5
  %11 = load ptr, ptr getelementptr inbounds nuw (%struct.evthread_lock_callbacks, ptr @evthread_lock_fns_, i32 0, i32 4), align 8
  %12 = load ptr, ptr %3, align 8
  %13 = call i32 %11(i32 noundef 16, ptr noundef %12)
  store i32 %13, ptr %4, align 4
  %14 = load i32, ptr %4, align 4
  %15 = icmp ne i32 %14, 0
  %16 = xor i1 %15, true
  %17 = zext i1 %16 to i32
  store i32 %17, ptr %2, align 4
  call void @llvm.lifetime.end.p0(i64 4, ptr %4) #5
  br label %19

18:                                               ; preds = %7, %1
  store i32 1, ptr %2, align 4
  br label %19

19:                                               ; preds = %18, %10
  %20 = load i32, ptr %2, align 4
  ret i32 %20
}

; Function Attrs: nounwind uwtable
define internal i32 @bev_group_suspend_writing_(ptr noundef %0) #0 {
  %2 = alloca ptr, align 8
  %3 = alloca ptr, align 8
  store ptr %0, ptr %2, align 8
  call void @llvm.lifetime.start.p0(i64 8, ptr %3) #5
  %4 = load ptr, ptr %2, align 8
  %5 = getelementptr inbounds nuw %struct.bufferevent_rate_limit_group, ptr %4, i32 0, i32 3
  %6 = load i8, ptr %5, align 8
  %7 = and i8 %6, -3
  %8 = or i8 %7, 2
  store i8 %8, ptr %5, align 8
  %9 = load ptr, ptr %2, align 8
  %10 = getelementptr inbounds nuw %struct.bufferevent_rate_limit_group, ptr %9, i32 0, i32 3
  %11 = load i8, ptr %10, align 8
  %12 = and i8 %11, -9
  %13 = or i8 %12, 0
  store i8 %13, ptr %10, align 8
  %14 = load ptr, ptr %2, align 8
  %15 = getelementptr inbounds nuw %struct.bufferevent_rate_limit_group, ptr %14, i32 0, i32 0
  %16 = getelementptr inbounds nuw %struct.rlim_group_member_list, ptr %15, i32 0, i32 0
  %17 = load ptr, ptr %16, align 8
  store ptr %17, ptr %3, align 8
  br label %18

18:                                               ; preds = %45, %1
  %19 = load ptr, ptr %3, align 8
  %20 = icmp ne ptr %19, null
  br i1 %20, label %21, label %52

21:                                               ; preds = %18
  %22 = load ptr, ptr %3, align 8
  %23 = getelementptr inbounds nuw %struct.bufferevent_private, ptr %22, i32 0, i32 11
  %24 = load ptr, ptr %23, align 8
  %25 = call i32 @EVLOCK_TRY_LOCK_(ptr noundef %24)
  %26 = icmp ne i32 %25, 0
  br i1 %26, label %27, label %44

27:                                               ; preds = %21
  %28 = load ptr, ptr %3, align 8
  %29 = getelementptr inbounds nuw %struct.bufferevent_private, ptr %28, i32 0, i32 0
  call void @bufferevent_suspend_write_(ptr noundef %29, i16 noundef zeroext 4)
  br label %30

30:                                               ; preds = %27
  %31 = load ptr, ptr %3, align 8
  %32 = getelementptr inbounds nuw %struct.bufferevent_private, ptr %31, i32 0, i32 11
  %33 = load ptr, ptr %32, align 8
  %34 = icmp ne ptr %33, null
  br i1 %34, label %35, label %41

35:                                               ; preds = %30
  %36 = load ptr, ptr getelementptr inbounds nuw (%struct.evthread_lock_callbacks, ptr @evthread_lock_fns_, i32 0, i32 5), align 8
  %37 = load ptr, ptr %3, align 8
  %38 = getelementptr inbounds nuw %struct.bufferevent_private, ptr %37, i32 0, i32 11
  %39 = load ptr, ptr %38, align 8
  %40 = call i32 %36(i32 noundef 0, ptr noundef %39)
  br label %41

41:                                               ; preds = %35, %30
  br label %42

42:                                               ; preds = %41
  br label %43

43:                                               ; preds = %42
  br label %44

44:                                               ; preds = %43, %21
  br label %45

45:                                               ; preds = %44
  %46 = load ptr, ptr %3, align 8
  %47 = getelementptr inbounds nuw %struct.bufferevent_private, ptr %46, i32 0, i32 14
  %48 = load ptr, ptr %47, align 8
  %49 = getelementptr inbounds nuw %struct.bufferevent_rate_limit, ptr %48, i32 0, i32 0
  %50 = getelementptr inbounds nuw %struct.anon.9, ptr %49, i32 0, i32 0
  %51 = load ptr, ptr %50, align 8
  store ptr %51, ptr %3, align 8
  br label %18, !llvm.loop !7

52:                                               ; preds = %18
  call void @llvm.lifetime.end.p0(i64 8, ptr %3) #5
  ret i32 0
}

; Function Attrs: nounwind uwtable
define i32 @bufferevent_rate_limit_group_decrement_write(ptr noundef %0, i64 noundef %1) #0 {
  %3 = alloca ptr, align 8
  %4 = alloca i64, align 8
  %5 = alloca i32, align 4
  %6 = alloca i64, align 8
  %7 = alloca i64, align 8
  store ptr %0, ptr %3, align 8
  store i64 %1, ptr %4, align 8
  call void @llvm.lifetime.start.p0(i64 4, ptr %5) #5
  store i32 0, ptr %5, align 4
  call void @llvm.lifetime.start.p0(i64 8, ptr %6) #5
  call void @llvm.lifetime.start.p0(i64 8, ptr %7) #5
  br label %8

8:                                                ; preds = %2
  %9 = load ptr, ptr %3, align 8
  %10 = getelementptr inbounds nuw %struct.bufferevent_rate_limit_group, ptr %9, i32 0, i32 11
  %11 = load ptr, ptr %10, align 8
  %12 = icmp ne ptr %11, null
  br i1 %12, label %13, label %19

13:                                               ; preds = %8
  %14 = load ptr, ptr getelementptr inbounds nuw (%struct.evthread_lock_callbacks, ptr @evthread_lock_fns_, i32 0, i32 4), align 8
  %15 = load ptr, ptr %3, align 8
  %16 = getelementptr inbounds nuw %struct.bufferevent_rate_limit_group, ptr %15, i32 0, i32 11
  %17 = load ptr, ptr %16, align 8
  %18 = call i32 %14(i32 noundef 0, ptr noundef %17)
  br label %19

19:                                               ; preds = %13, %8
  br label %20

20:                                               ; preds = %19
  br label %21

21:                                               ; preds = %20
  %22 = load ptr, ptr %3, align 8
  %23 = getelementptr inbounds nuw %struct.bufferevent_rate_limit_group, ptr %22, i32 0, i32 1
  %24 = getelementptr inbounds nuw %struct.ev_token_bucket, ptr %23, i32 0, i32 1
  %25 = load i64, ptr %24, align 8
  store i64 %25, ptr %6, align 8
  %26 = load i64, ptr %4, align 8
  %27 = load ptr, ptr %3, align 8
  %28 = getelementptr inbounds nuw %struct.bufferevent_rate_limit_group, ptr %27, i32 0, i32 1
  %29 = getelementptr inbounds nuw %struct.ev_token_bucket, ptr %28, i32 0, i32 1
  %30 = load i64, ptr %29, align 8
  %31 = sub nsw i64 %30, %26
  store i64 %31, ptr %29, align 8
  store i64 %31, ptr %7, align 8
  %32 = load i64, ptr %6, align 8
  %33 = icmp sgt i64 %32, 0
  br i1 %33, label %34, label %40

34:                                               ; preds = %21
  %35 = load i64, ptr %7, align 8
  %36 = icmp sle i64 %35, 0
  br i1 %36, label %37, label %40

37:                                               ; preds = %34
  %38 = load ptr, ptr %3, align 8
  %39 = call i32 @bev_group_suspend_writing_(ptr noundef %38)
  br label %49

40:                                               ; preds = %34, %21
  %41 = load i64, ptr %6, align 8
  %42 = icmp sle i64 %41, 0
  br i1 %42, label %43, label %48

43:                                               ; preds = %40
  %44 = load i64, ptr %7, align 8
  %45 = icmp sgt i64 %44, 0
  br i1 %45, label %46, label %48

46:                                               ; preds = %43
  %47 = load ptr, ptr %3, align 8
  call void @bev_group_unsuspend_writing_(ptr noundef %47)
  br label %48

48:                                               ; preds = %46, %43, %40
  br label %49

49:                                               ; preds = %48, %37
  br label %50

50:                                               ; preds = %49
  %51 = load ptr, ptr %3, align 8
  %52 = getelementptr inbounds nuw %struct.bufferevent_rate_limit_group, ptr %51, i32 0, i32 11
  %53 = load ptr, ptr %52, align 8
  %54 = icmp ne ptr %53, null
  br i1 %54, label %55, label %61

55:                                               ; preds = %50
  %56 = load ptr, ptr getelementptr inbounds nuw (%struct.evthread_lock_callbacks, ptr @evthread_lock_fns_, i32 0, i32 5), align 8
  %57 = load ptr, ptr %3, align 8
  %58 = getelementptr inbounds nuw %struct.bufferevent_rate_limit_group, ptr %57, i32 0, i32 11
  %59 = load ptr, ptr %58, align 8
  %60 = call i32 %56(i32 noundef 0, ptr noundef %59)
  br label %61

61:                                               ; preds = %55, %50
  br label %62

62:                                               ; preds = %61
  br label %63

63:                                               ; preds = %62
  %64 = load i32, ptr %5, align 4
  call void @llvm.lifetime.end.p0(i64 8, ptr %7) #5
  call void @llvm.lifetime.end.p0(i64 8, ptr %6) #5
  call void @llvm.lifetime.end.p0(i64 4, ptr %5) #5
  ret i32 %64
}